; Function Attrs: nounwind uwtable
define dso_local i64 @PyMarshal_ReadLongFromFile(ptr noundef %0) local_unnamed_addr #0 {
  %2 = alloca %struct.RFILE, align 8
  call void @llvm.lifetime.start.p0(i64 72, ptr nonnull %2) #11
  store ptr %0, ptr %2, align 8, !tbaa !45
  %3 = getelementptr inbounds nuw i8, ptr %2, i64 16
  %4 = getelementptr inbounds nuw i8, ptr %2, i64 40
  call void @llvm.memset.p0.i64(ptr noundef nonnull align 8 dereferenceable(32) %3, i8 0, i64 32, i1 false)
  %5 = call fastcc ptr @r_string(i64 noundef 4, ptr noundef nonnull %2)
  %.not.i = icmp eq ptr %5, null
  br i1 %.not.i, label %r_long.exit, label %6

6:                                                ; preds = %1
  %7 = load i16, ptr %5, align 1
  %8 = zext i16 %7 to i64
  %9 = getelementptr i8, ptr %5, i64 2
  %10 = load i8, ptr %9, align 1, !tbaa !25
  %11 = zext i8 %10 to i64
  %12 = shl nuw nsw i64 %11, 16
  %13 = or disjoint i64 %12, %8
  %14 = getelementptr i8, ptr %5, i64 3
  %15 = load i8, ptr %14, align 1, !tbaa !25
  %16 = zext i8 %15 to i64
  %17 = shl nuw nsw i64 %16, 24
  %18 = and i64 %17, 2147483648
  %19 = sub nsw i64 %13, %18
  %20 = or i64 %19, %17
  br label %r_long.exit

r_long.exit:                                      ; preds = %1, %6
  %.0.i = phi i64 [ %20, %6 ], [ -1, %1 ]
  %21 = load ptr, ptr %4, align 8, !tbaa !46
  %.not = icmp eq ptr %21, null
  br i1 %.not, label %23, label %22

22:                                               ; preds = %r_long.exit
  tail call void @PyMem_Free(ptr noundef nonnull %21) #11
  br label %23

23:                                               ; preds = %22, %r_long.exit
  call void @llvm.lifetime.end.p0(i64 72, ptr nonnull %2) #11
  ret i64 %.0.i
}